target datalayout = "e-m:e-p270:32:32-p271:32:32-p272:64:64-i64:64-i128:128-f80:128-n8:16:32:64-S128"
target triple = "x86_64-pc-linux-gnu"

%struct.GenContext_ = type { i8, ptr, ptr, ptr, ptr, ptr, ptr, ptr, ptr, ptr, ptr, ptr, ptr, ptr, ptr, ptr, ptr, ptr, ptr, ptr, ptr, ptr, ptr, ptr, ptr, ptr, ptr, ptr, ptr, ptr, ptr, ptr, ptr, %struct.anon.85, i32, i32, %struct.DebugContext, ptr, ptr, ptr, %struct.BEValue, i8, %union.SourceSpan, ptr, ptr, ptr, ptr }
%struct.anon.85 = type { ptr, ptr, ptr }
%struct.DebugContext = type { i16, ptr, ptr, %struct.DebugFile_, ptr, ptr, ptr, ptr }
%struct.DebugFile_ = type { i16, ptr }
%struct.BEValue = type { i8, i32, ptr, ptr, ptr }
%union.SourceSpan = type { i64 }
%struct.Decl_ = type { ptr, ptr, %union.SourceSpan, i64, %union.anon, i32, %union.anon.0, i64, ptr, ptr, ptr, %union.anon.1 }
%union.anon = type { ptr }
%union.anon.0 = type { i16 }
%union.anon.1 = type { %struct.FuncDecl }
%struct.FuncDecl = type { i32, [4 x i8], %struct.Signature_, i32, i32, %union.anon.8 }
%struct.Signature_ = type <{ %struct.CalleeAttributes, i16, i8, i32, i32, [4 x i8], ptr }>
%struct.CalleeAttributes = type { i8 }
%union.anon.8 = type { %struct.anon.9 }
%struct.anon.9 = type { i16, %union.anon.10 }
%union.anon.10 = type { ptr }
%struct.anon = type { i16, i8, i8, i32 }
%struct.Type_ = type { i32, ptr, ptr, ptr, %union.anon.90, ptr, ptr, %union.anon.92 }
%union.anon.90 = type { ptr }
%union.anon.92 = type { %struct.TypeFunction }
%struct.TypeFunction = type { ptr, ptr, ptr }
%struct.anon.2 = type { ptr, ptr, %union.anon.3 }
%union.anon.3 = type { %struct.BitStructDecl }
%struct.BitStructDecl = type { ptr, ptr, i8 }
%struct.TypeInfo_ = type { i16, ptr, %union.SourceSpan, %union.anon.56 }
%union.anon.56 = type { %struct.anon.57 }
%struct.anon.57 = type { ptr, ptr }

@id_counter = internal global i32 0, align 4

; Function Attrs: nounwind uwtable
define internal ptr @llvm_debug_forward_comp(ptr noundef %0, ptr noundef %1, ptr noundef %2, ptr noundef %3, ptr noundef %4, i32 noundef %5) #0 {
  %7 = alloca ptr, align 8
  %8 = alloca ptr, align 8
  %9 = alloca ptr, align 8
  %10 = alloca ptr, align 8
  %11 = alloca ptr, align 8
  %12 = alloca i32, align 4
  %13 = alloca i32, align 4
  store ptr %0, ptr %7, align 8
  store ptr %1, ptr %8, align 8
  store ptr %2, ptr %9, align 8
  store ptr %3, ptr %10, align 8
  store ptr %4, ptr %11, align 8
  store i32 %5, ptr %12, align 4
  store i32 0, ptr %13, align 4
  %14 = load ptr, ptr %10, align 8
  %15 = icmp ne ptr %14, null
  br i1 %15, label %16, label %24

16:                                               ; preds = %6
  %17 = load ptr, ptr %10, align 8
  %18 = getelementptr inbounds %struct.anon, ptr %17, i32 0, i32 3
  %19 = load i32, ptr %18, align 4
  store i32 %19, ptr %13, align 4
  %20 = load i32, ptr %13, align 4
  %21 = icmp ne i32 %20, 0
  br i1 %21, label %23, label %22

22:                                               ; preds = %16
  store i32 1, ptr %13, align 4
  br label %23

23:                                               ; preds = %22, %16
  br label %24

24:                                               ; preds = %23, %6
  %25 = load ptr, ptr %7, align 8
  %26 = getelementptr inbounds %struct.GenContext_, ptr %25, i32 0, i32 36
  %27 = getelementptr inbounds %struct.DebugContext, ptr %26, i32 0, i32 1
  %28 = load ptr, ptr %27, align 8
  %29 = load i32, ptr @id_counter, align 4
  %30 = add i32 %29, 1
  store i32 %30, ptr @id_counter, align 4
  %31 = load ptr, ptr %8, align 8
  %32 = getelementptr inbounds %struct.Type_, ptr %31, i32 0, i32 2
  %33 = load ptr, ptr %32, align 8
  %34 = load ptr, ptr %8, align 8
  %35 = getelementptr inbounds %struct.Type_, ptr %34, i32 0, i32 2
  %36 = load ptr, ptr %35, align 8
  %37 = call i64 @strlen(ptr noundef %36) #5
  %38 = load ptr, ptr %11, align 8
  %39 = load ptr, ptr %7, align 8
  %40 = getelementptr inbounds %struct.GenContext_, ptr %39, i32 0, i32 36
  %41 = getelementptr inbounds %struct.DebugContext, ptr %40, i32 0, i32 3
  %42 = getelementptr inbounds %struct.DebugFile_, ptr %41, i32 0, i32 1
  %43 = load ptr, ptr %42, align 8
  %44 = load i32, ptr %13, align 4
  %45 = load ptr, ptr %7, align 8
  %46 = getelementptr inbounds %struct.GenContext_, ptr %45, i32 0, i32 36
  %47 = load i16, ptr %46, align 8
  %48 = and i16 %47, 255
  %49 = zext i16 %48 to i32
  %50 = load ptr, ptr %8, align 8
  %51 = call i32 @type_size(ptr noundef %50)
  %52 = mul i32 %51, 8
  %53 = zext i32 %52 to i64
  %54 = load ptr, ptr %8, align 8
  %55 = call i32 @type_abi_alignment(ptr noundef %54)
  %56 = mul i32 %55, 8
  %57 = load i32, ptr %12, align 4
  %58 = load ptr, ptr %9, align 8
  %59 = load ptr, ptr %9, align 8
  %60 = call i64 @strlen(ptr noundef %59) #5
  %61 = call ptr @LLVMDIBuilderCreateReplaceableCompositeType(ptr noundef %28, i32 noundef %29, ptr noundef %33, i64 noundef %37, ptr noundef %38, ptr noundef %43, i32 noundef %44, i32 noundef %49, i64 noundef %53, i32 noundef %56, i32 noundef %57, ptr noundef %58, i64 noundef %60)
  ret ptr %61
}

; Function Attrs: nounwind uwtable
define dso_local ptr @llvm_get_debug_type(ptr noundef %0, ptr noundef %1) #0 {
  %3 = alloca ptr, align 8
  %4 = alloca ptr, align 8
  store ptr %0, ptr %3, align 8
  store ptr %1, ptr %4, align 8
  %5 = load ptr, ptr %3, align 8
  %6 = load ptr, ptr %4, align 8
  %7 = load ptr, ptr %3, align 8
  %8 = getelementptr inbounds %struct.GenContext_, ptr %7, i32 0, i32 36
  %9 = getelementptr inbounds %struct.DebugContext, ptr %8, i32 0, i32 3
  %10 = getelementptr inbounds %struct.DebugFile_, ptr %9, i32 0, i32 1
  %11 = load ptr, ptr %10, align 8
  %12 = call ptr @llvm_get_debug_type_internal(ptr noundef %5, ptr noundef %6, ptr noundef %11)
  ret ptr %12
}

; Function Attrs: nounwind uwtable
define internal ptr @llvm_debug_typedef_type(ptr noundef %0, ptr noundef %1) #0 {
  %3 = alloca ptr, align 8
  %4 = alloca ptr, align 8
  %5 = alloca ptr, align 8
  %6 = alloca ptr, align 8
  %7 = alloca ptr, align 8
  %8 = alloca i32, align 4
  %9 = alloca ptr, align 8
  store ptr %0, ptr %4, align 8
  store ptr %1, ptr %5, align 8
  %10 = load ptr, ptr %5, align 8
  %11 = getelementptr inbounds %struct.Type_, ptr %10, i32 0, i32 7
  %12 = load ptr, ptr %11, align 8
  store ptr %12, ptr %6, align 8
  %13 = load ptr, ptr %6, align 8
  %14 = icmp ne ptr %13, null
  br i1 %14, label %33, label %15

15:                                               ; preds = %2
  %16 = load ptr, ptr %4, align 8
  %17 = getelementptr inbounds %struct.GenContext_, ptr %16, i32 0, i32 36
  %18 = getelementptr inbounds %struct.DebugContext, ptr %17, i32 0, i32 1
  %19 = load ptr, ptr %18, align 8
  %20 = load ptr, ptr %4, align 8
  %21 = load ptr, ptr %5, align 8
  %22 = getelementptr inbounds %struct.Type_, ptr %21, i32 0, i32 1
  %23 = load ptr, ptr %22, align 8
  %24 = call ptr @llvm_get_debug_type(ptr noundef %20, ptr noundef %23)
  %25 = load ptr, ptr %5, align 8
  %26 = getelementptr inbounds %struct.Type_, ptr %25, i32 0, i32 2
  %27 = load ptr, ptr %26, align 8
  %28 = load ptr, ptr %5, align 8
  %29 = getelementptr inbounds %struct.Type_, ptr %28, i32 0, i32 2
  %30 = load ptr, ptr %29, align 8
  %31 = call i64 @strlen(ptr noundef %30) #5
  %32 = call ptr @LLVMDIBuilderCreateTypedef(ptr noundef %19, ptr noundef %24, ptr noundef %27, i64 noundef %31, ptr noundef null, i32 noundef 0, ptr noundef null, i32 noundef 0)
  store ptr %32, ptr %3, align 8
  br label %121

33:                                               ; preds = %2
  %34 = load ptr, ptr %5, align 8
  %35 = getelementptr inbounds %struct.Type_, ptr %34, i32 0, i32 0
  %36 = load i32, ptr %35, align 8
  %37 = icmp eq i32 %36, 31
  br i1 %37, label %38, label %42

38:                                               ; preds = %33
  %39 = load ptr, ptr %5, align 8
  %40 = getelementptr inbounds %struct.Type_, ptr %39, i32 0, i32 1
  %41 = load ptr, ptr %40, align 8
  br label %49

42:                                               ; preds = %33
  %43 = load ptr, ptr %6, align 8
  %44 = getelementptr inbounds %struct.Decl_, ptr %43, i32 0, i32 11
  %45 = getelementptr inbounds %struct.anon.2, ptr %44, i32 0, i32 2
  %46 = load ptr, ptr %45, align 8
  %47 = getelementptr inbounds %struct.TypeInfo_, ptr %46, i32 0, i32 1
  %48 = load ptr, ptr %47, align 8
  br label %49

49:                                               ; preds = %42, %38
  %50 = phi ptr [ %41, %38 ], [ %48, %42 ]
  store ptr %50, ptr %7, align 8
  %51 = load ptr, ptr %5, align 8
  %52 = getelementptr inbounds %struct.Type_, ptr %51, i32 0, i32 1
  %53 = load ptr, ptr %52, align 8
  %54 = getelementptr inbounds %struct.Type_, ptr %53, i32 0, i32 6
  %55 = load ptr, ptr %54, align 8
  %56 = icmp ne ptr %55, null
  br i1 %56, label %68, label %57

57:                                               ; preds = %49
  %58 = load ptr, ptr %4, align 8
  %59 = load ptr, ptr %5, align 8
  %60 = load ptr, ptr %5, align 8
  %61 = getelementptr inbounds %struct.Type_, ptr %60, i32 0, i32 2
  %62 = load ptr, ptr %61, align 8
  %63 = load ptr, ptr %6, align 8
  %64 = getelementptr inbounds %struct.Decl_, ptr %63, i32 0, i32 2
  %65 = call ptr @llvm_debug_forward_comp(ptr noundef %58, ptr noundef %59, ptr noundef %62, ptr noundef %64, ptr noundef null, i32 noundef 0)
  %66 = load ptr, ptr %5, align 8
  %67 = getelementptr inbounds %struct.Type_, ptr %66, i32 0, i32 6
  store ptr %65, ptr %67, align 8
  br label %68

68:                                               ; preds = %57, %49
  %69 = load ptr, ptr %6, align 8
  %70 = getelementptr inbounds %struct.Decl_, ptr %69, i32 0, i32 2
  %71 = getelementptr inbounds %struct.anon, ptr %70, i32 0, i32 3
  %72 = load i32, ptr %71, align 4
  store i32 %72, ptr %8, align 4
  %73 = load ptr, ptr %4, align 8
  %74 = getelementptr inbounds %struct.GenContext_, ptr %73, i32 0, i32 36
  %75 = getelementptr inbounds %struct.DebugContext, ptr %74, i32 0, i32 1
  %76 = load ptr, ptr %75, align 8
  %77 = load ptr, ptr %4, align 8
  %78 = load ptr, ptr %7, align 8
  %79 = call ptr @llvm_get_debug_type(ptr noundef %77, ptr noundef %78)
  %80 = load ptr, ptr %6, align 8
  %81 = getelementptr inbounds %struct.Decl_, ptr %80, i32 0, i32 0
  %82 = load ptr, ptr %81, align 8
  %83 = load ptr, ptr %6, align 8
  %84 = getelementptr inbounds %struct.Decl_, ptr %83, i32 0, i32 0
  %85 = load ptr, ptr %84, align 8
  %86 = call i64 @strlen(ptr noundef %85) #5
  %87 = load ptr, ptr %4, align 8
  %88 = getelementptr inbounds %struct.GenContext_, ptr %87, i32 0, i32 36
  %89 = getelementptr inbounds %struct.DebugContext, ptr %88, i32 0, i32 3
  %90 = getelementptr inbounds %struct.DebugFile_, ptr %89, i32 0, i32 1
  %91 = load ptr, ptr %90, align 8
  %92 = load i32, ptr %8, align 4
  %93 = icmp ne i32 %92, 0
  br i1 %93, label %94, label %96

94:                                               ; preds = %68
  %95 = load i32, ptr %8, align 4
  br label %97

96:                                               ; preds = %68
  br label %97

97:                                               ; preds = %96, %94
  %98 = phi i32 [ %95, %94 ], [ 1, %96 ]
  %99 = load ptr, ptr %4, align 8
  %100 = getelementptr inbounds %struct.GenContext_, ptr %99, i32 0, i32 36
  %101 = getelementptr inbounds %struct.DebugContext, ptr %100, i32 0, i32 3
  %102 = getelementptr inbounds %struct.DebugFile_, ptr %101, i32 0, i32 1
  %103 = load ptr, ptr %102, align 8
  %104 = load ptr, ptr %5, align 8
  %105 = call i32 @type_abi_alignment(ptr noundef %104)
  %106 = call ptr @LLVMDIBuilderCreateTypedef(ptr noundef %76, ptr noundef %79, ptr noundef %82, i64 noundef %86, ptr noundef %91, i32 noundef %98, ptr noundef %103, i32 noundef %105)
  store ptr %106, ptr %9, align 8
  %107 = load ptr, ptr %5, align 8
  %108 = getelementptr inbounds %struct.Type_, ptr %107, i32 0, i32 6
  %109 = load ptr, ptr %108, align 8
  %110 = icmp ne ptr %109, null
  br i1 %110, label %111, label %119

111:                                              ; preds = %97
  %112 = load ptr, ptr %5, align 8
  %113 = getelementptr inbounds %struct.Type_, ptr %112, i32 0, i32 6
  %114 = load ptr, ptr %113, align 8
  %115 = load ptr, ptr %9, align 8
  call void @LLVMMetadataReplaceAllUsesWith(ptr noundef %114, ptr noundef %115)
  %116 = load ptr, ptr %9, align 8
  %117 = load ptr, ptr %5, align 8
  %118 = getelementptr inbounds %struct.Type_, ptr %117, i32 0, i32 6
  store ptr %116, ptr %118, align 8
  br label %119

119:                                              ; preds = %111, %97
  %120 = load ptr, ptr %9, align 8
  store ptr %120, ptr %3, align 8
  br label %121

121:                                              ; preds = %119, %15
  %122 = load ptr, ptr %3, align 8
  ret ptr %122
}