; Function Attrs: nounwind uwtable
define internal fastcc ptr @llvm_debug_typedef_type(ptr nocapture noundef readonly %0, ptr noundef %1) unnamed_addr #0 {
  %3 = getelementptr inbounds i8, ptr %1, i64 56
  %4 = load ptr, ptr %3, align 8
  %.not = icmp eq ptr %4, null
  br i1 %.not, label %5, label %17

5:                                                ; preds = %2
  %6 = getelementptr inbounds i8, ptr %0, i64 304
  %7 = load ptr, ptr %6, align 8
  %8 = getelementptr inbounds i8, ptr %1, i64 8
  %9 = load ptr, ptr %8, align 8
  %10 = getelementptr inbounds i8, ptr %0, i64 328
  %11 = load ptr, ptr %10, align 8
  %12 = tail call fastcc ptr @llvm_get_debug_type_internal(ptr noundef %0, ptr noundef %9, ptr noundef %11)
  %13 = getelementptr inbounds i8, ptr %1, i64 16
  %14 = load ptr, ptr %13, align 8
  %15 = tail call i64 @strlen(ptr noundef nonnull dereferenceable(1) %14) #9
  %16 = tail call ptr @LLVMDIBuilderCreateTypedef(ptr noundef %7, ptr noundef %12, ptr noundef %14, i64 noundef %15, ptr noundef null, i32 noundef 0, ptr noundef null, i32 noundef 0) #8
  br label %70

17:                                               ; preds = %2
  %18 = load i32, ptr %1, align 8
  %19 = icmp eq i32 %18, 31
  br i1 %19, label %23, label %20

20:                                               ; preds = %17
  %21 = getelementptr inbounds i8, ptr %4, i64 96
  %22 = load ptr, ptr %21, align 8
  br label %23

23:                                               ; preds = %17, %20
  %.pn = phi ptr [ %22, %20 ], [ %1, %17 ]
  %.in = getelementptr inbounds i8, ptr %.pn, i64 8
  %24 = load ptr, ptr %.in, align 8
  %25 = getelementptr inbounds i8, ptr %1, i64 8
  %26 = load ptr, ptr %25, align 8
  %27 = getelementptr inbounds i8, ptr %26, i64 48
  %28 = load ptr, ptr %27, align 8
  %.not35 = icmp eq ptr %28, null
  br i1 %.not35, label %29, label %53

29:                                               ; preds = %23
  %30 = getelementptr inbounds i8, ptr %1, i64 16
  %31 = load ptr, ptr %30, align 8
  %32 = getelementptr inbounds i8, ptr %4, i64 20
  %33 = load i32, ptr %32, align 4
  %spec.store.select.i = tail call i32 @llvm.umax.i32(i32 %33, i32 1)
  %34 = getelementptr inbounds i8, ptr %0, i64 296
  %35 = getelementptr inbounds i8, ptr %0, i64 304
  %36 = load ptr, ptr %35, align 8
  %37 = load i32, ptr @id_counter, align 4
  %38 = add i32 %37, 1
  store i32 %38, ptr @id_counter, align 4
  %39 = tail call i64 @strlen(ptr noundef nonnull dereferenceable(1) %31) #9
  %40 = getelementptr inbounds i8, ptr %0, i64 328
  %41 = load ptr, ptr %40, align 8
  %42 = load i16, ptr %34, align 8
  %43 = and i16 %42, 255
  %44 = zext nneg i16 %43 to i32
  %45 = tail call i32 @type_size(ptr noundef nonnull %1) #8
  %46 = shl i32 %45, 3
  %47 = zext i32 %46 to i64
  %48 = tail call i32 @type_abi_alignment(ptr noundef nonnull %1) #8
  %49 = shl i32 %48, 3
  %50 = tail call i64 @strlen(ptr noundef nonnull dereferenceable(1) %31) #9
  %51 = tail call ptr @LLVMDIBuilderCreateReplaceableCompositeType(ptr noundef %36, i32 noundef %37, ptr noundef %31, i64 noundef %39, ptr noundef null, ptr noundef %41, i32 noundef %spec.store.select.i, i32 noundef %44, i64 noundef %47, i32 noundef %49, i32 noundef 0, ptr noundef %31, i64 noundef %50) #8
  %52 = getelementptr inbounds i8, ptr %1, i64 48
  store ptr %51, ptr %52, align 8
  br label %53

53:                                               ; preds = %29, %23
  %54 = getelementptr inbounds i8, ptr %4, i64 20
  %55 = load i32, ptr %54, align 4
  %56 = getelementptr inbounds i8, ptr %0, i64 304
  %57 = load ptr, ptr %56, align 8
  %58 = getelementptr inbounds i8, ptr %0, i64 328
  %59 = load ptr, ptr %58, align 8
  %60 = tail call fastcc ptr @llvm_get_debug_type_internal(ptr noundef %0, ptr noundef %24, ptr noundef %59)
  %61 = load ptr, ptr %4, align 8
  %62 = tail call i64 @strlen(ptr noundef nonnull dereferenceable(1) %61) #9
  %63 = load ptr, ptr %58, align 8
  %64 = tail call i32 @llvm.umax.i32(i32 %55, i32 1)
  %65 = tail call i32 @type_abi_alignment(ptr noundef nonnull %1) #8
  %66 = tail call ptr @LLVMDIBuilderCreateTypedef(ptr noundef %57, ptr noundef %60, ptr noundef %61, i64 noundef %62, ptr noundef %63, i32 noundef %64, ptr noundef %63, i32 noundef %65) #8
  %67 = getelementptr inbounds i8, ptr %1, i64 48
  %68 = load ptr, ptr %67, align 8
  %.not37 = icmp eq ptr %68, null
  br i1 %.not37, label %70, label %69

69:                                               ; preds = %53
  tail call void @LLVMMetadataReplaceAllUsesWith(ptr noundef nonnull %68, ptr noundef %66) #8
  store ptr %66, ptr %67, align 8
  br label %70

70:                                               ; preds = %53, %69, %5
  %.0 = phi ptr [ %16, %5 ], [ %66, %69 ], [ %66, %53 ]
  ret ptr %.0
}